; Function Attrs: nounwind uwtable
define ptr @l_Std_Internal_IO_Async_Waiter_withPromise___rarg(ptr noundef %0, ptr noundef %1) #0 {
  %.val = load i32, ptr %0, align 4, !tbaa !4
  %3 = icmp eq i32 %.val, 1
  br i1 %3, label %4, label %16

4:                                                ; preds = %2
  %5 = getelementptr inbounds nuw i8, ptr %0, i64 16
  %6 = load ptr, ptr %5, align 8, !tbaa !9
  %7 = ptrtoint ptr %6 to i64
  %8 = and i64 %7, 1
  %.not20 = icmp eq i64 %8, 0
  br i1 %.not20, label %9, label %lean_dec.exit

9:                                                ; preds = %4
  %10 = load i32, ptr %6, align 4, !tbaa !4
  %11 = icmp sgt i32 %10, 1
  br i1 %11, label %12, label %14, !prof !11

12:                                               ; preds = %9
  %13 = add nsw i32 %10, -1
  store i32 %13, ptr %6, align 4, !tbaa !4
  br label %lean_dec.exit

14:                                               ; preds = %9
  %.not.i16 = icmp eq i32 %10, 0
  br i1 %.not.i16, label %lean_dec.exit, label %15

15:                                               ; preds = %14
  tail call void @lean_dec_ref_cold(ptr noundef nonnull %6) #5
  br label %lean_dec.exit

lean_dec.exit:                                    ; preds = %15, %14, %12, %4
  store ptr %1, ptr %5, align 8, !tbaa !9
  br label %42

16:                                               ; preds = %2
  %17 = getelementptr inbounds nuw i8, ptr %0, i64 8
  %18 = load ptr, ptr %17, align 8, !tbaa !9
  %19 = ptrtoint ptr %18 to i64
  %20 = and i64 %19, 1
  %.not = icmp eq i64 %20, 0
  br i1 %.not, label %21, label %lean_inc.exit

21:                                               ; preds = %16
  %.val.i = load i32, ptr %18, align 4, !tbaa !4
  %22 = icmp sgt i32 %.val.i, 0
  br i1 %22, label %23, label %25, !prof !11

23:                                               ; preds = %21
  %24 = add nuw i32 %.val.i, 1
  store i32 %24, ptr %18, align 4, !tbaa !4
  br label %lean_inc.exit

25:                                               ; preds = %21
  %.not.i18 = icmp eq i32 %.val.i, 0
  br i1 %.not.i18, label %lean_inc.exit, label %26

26:                                               ; preds = %25
  tail call void @lean_inc_ref_cold(ptr noundef nonnull %18) #5
  br label %lean_inc.exit

lean_inc.exit:                                    ; preds = %26, %25, %23, %16
  %27 = ptrtoint ptr %0 to i64
  %28 = and i64 %27, 1
  %.not19 = icmp eq i64 %28, 0
  br i1 %.not19, label %29, label %lean_dec.exit15

29:                                               ; preds = %lean_inc.exit
  %30 = load i32, ptr %0, align 4, !tbaa !4
  %31 = icmp sgt i32 %30, 1
  br i1 %31, label %32, label %34, !prof !11

32:                                               ; preds = %29
  %33 = add nsw i32 %30, -1
  store i32 %33, ptr %0, align 4, !tbaa !4
  br label %lean_dec.exit15

34:                                               ; preds = %29
  %.not.i = icmp eq i32 %30, 0
  br i1 %.not.i, label %lean_dec.exit15, label %35

35:                                               ; preds = %34
  tail call void @lean_dec_ref_cold(ptr noundef nonnull %0) #5
  br label %lean_dec.exit15

lean_dec.exit15:                                  ; preds = %35, %34, %32, %lean_inc.exit
  tail call void @lean_inc_heartbeat() #5
  %36 = tail call noalias ptr @mi_malloc_small(i64 noundef 24) #5
  %37 = icmp eq ptr %36, null
  br i1 %37, label %38, label %lean_alloc_ctor.exit

38:                                               ; preds = %lean_dec.exit15
  tail call void @lean_internal_panic_out_of_memory() #6
  unreachable

lean_alloc_ctor.exit:                             ; preds = %lean_dec.exit15
  %39 = getelementptr inbounds nuw i8, ptr %36, i64 4
  store i32 1, ptr %36, align 4, !tbaa !4
  store i32 131096, ptr %39, align 4
  %40 = getelementptr inbounds nuw i8, ptr %36, i64 8
  store ptr %18, ptr %40, align 8, !tbaa !9
  %41 = getelementptr inbounds nuw i8, ptr %36, i64 16
  store ptr %1, ptr %41, align 8, !tbaa !9
  br label %42

42:                                               ; preds = %lean_alloc_ctor.exit, %lean_dec.exit
  %.0 = phi ptr [ %0, %lean_dec.exit ], [ %36, %lean_alloc_ctor.exit ]
  ret ptr %.0
}